; Function Attrs: mustprogress uwtable
define internal void @_ZN12_GLOBAL__N_115SmtPrintVisitor12memory_writeEN5Yosys10Functional4NodeES3_S3_S3_(ptr dead_on_unwind noalias writable sret(%"class.Yosys::SExpr") align 8 %0, ptr noundef nonnull align 8 dereferenceable(56) %1, ptr readnone captures(none) %2, i32 %3, ptr %4, i32 %5, ptr noundef readonly byval(%"class.Yosys::Functional::Node") align 8 captures(none) %6, ptr noundef readonly byval(%"class.Yosys::Functional::Node") align 8 captures(none) %7) unnamed_addr #5 align 2 personality ptr @__gxx_personality_v0 {
  %9 = alloca %"class.Yosys::Functional::Node", align 8
  %10 = alloca %"class.Yosys::Functional::Node", align 8
  %11 = alloca %"class.Yosys::Functional::Node", align 8
  %12 = alloca %"class.Yosys::SExpr", align 8
  %13 = alloca %"class.Yosys::SExpr", align 8
  %14 = alloca %"class.Yosys::SExpr", align 8
  call void @llvm.lifetime.start.p0(i64 40, ptr nonnull %12) #26
  %15 = getelementptr inbounds nuw i8, ptr %1, i64 8
  call void @llvm.lifetime.start.p0(i64 16, ptr nonnull %11)
  store ptr %4, ptr %11, align 8, !noalias !665
  %16 = getelementptr inbounds nuw i8, ptr %11, i64 8
  store i32 %5, ptr %16, align 8, !noalias !665
  %17 = getelementptr inbounds nuw i8, ptr %1, i64 24
  %18 = load ptr, ptr %17, align 8, !tbaa !196, !noalias !665
  %.not.i.i = icmp eq ptr %18, null
  br i1 %.not.i.i, label %19, label %_ZNKSt8functionIFN5Yosys5SExprENS0_10Functional4NodeEEEclES3_.exit

19:                                               ; preds = %8
  tail call void @_ZSt25__throw_bad_function_callv() #28, !noalias !665
  unreachable

_ZNKSt8functionIFN5Yosys5SExprENS0_10Functional4NodeEEEclES3_.exit: ; preds = %8
  %20 = getelementptr inbounds nuw i8, ptr %1, i64 32
  %21 = load ptr, ptr %20, align 8, !tbaa !198, !noalias !665
  call void %21(ptr dead_on_unwind nonnull writable sret(%"class.Yosys::SExpr") align 8 %12, ptr noundef nonnull align 8 dereferenceable(32) %15, ptr noundef nonnull align 8 dereferenceable(16) %11)
  call void @llvm.lifetime.end.p0(i64 16, ptr nonnull %11)
  call void @llvm.lifetime.start.p0(i64 40, ptr nonnull %13) #26
  %.sroa.01.0.copyload = load ptr, ptr %6, align 8, !tbaa !512
  %.sroa.22.0..sroa_idx = getelementptr inbounds nuw i8, ptr %6, i64 8
  %.sroa.22.0.copyload = load i32, ptr %.sroa.22.0..sroa_idx, align 8, !tbaa !69
  call void @llvm.lifetime.start.p0(i64 16, ptr nonnull %10)
  store ptr %.sroa.01.0.copyload, ptr %10, align 8, !noalias !668
  %22 = getelementptr inbounds nuw i8, ptr %10, i64 8
  store i32 %.sroa.22.0.copyload, ptr %22, align 8, !noalias !668
  %23 = load ptr, ptr %17, align 8, !tbaa !196, !noalias !668
  %.not.i.i15 = icmp eq ptr %23, null
  br i1 %.not.i.i15, label %24, label %25

24:                                               ; preds = %_ZNKSt8functionIFN5Yosys5SExprENS0_10Functional4NodeEEEclES3_.exit
  invoke void @_ZSt25__throw_bad_function_callv() #28
          to label %.noexc unwind label %68

.noexc:                                           ; preds = %24
  unreachable

25:                                               ; preds = %_ZNKSt8functionIFN5Yosys5SExprENS0_10Functional4NodeEEEclES3_.exit
  %26 = load ptr, ptr %20, align 8, !tbaa !198, !noalias !668
  invoke void %26(ptr dead_on_unwind nonnull writable sret(%"class.Yosys::SExpr") align 8 %13, ptr noundef nonnull align 8 dereferenceable(32) %15, ptr noundef nonnull align 8 dereferenceable(16) %10)
          to label %27 unwind label %68

27:                                               ; preds = %25
  call void @llvm.lifetime.end.p0(i64 16, ptr nonnull %10)
  call void @llvm.lifetime.start.p0(i64 40, ptr nonnull %14) #26
  %.sroa.0.0.copyload = load ptr, ptr %7, align 8, !tbaa !512
  %.sroa.2.0..sroa_idx = getelementptr inbounds nuw i8, ptr %7, i64 8
  %.sroa.2.0.copyload = load i32, ptr %.sroa.2.0..sroa_idx, align 8, !tbaa !69
  call void @llvm.lifetime.start.p0(i64 16, ptr nonnull %9)
  store ptr %.sroa.0.0.copyload, ptr %9, align 8, !noalias !671
  %28 = getelementptr inbounds nuw i8, ptr %9, i64 8
  store i32 %.sroa.2.0.copyload, ptr %28, align 8, !noalias !671
  %29 = load ptr, ptr %17, align 8, !tbaa !196, !noalias !671
  %.not.i.i18 = icmp eq ptr %29, null
  br i1 %.not.i.i18, label %30, label %31

30:                                               ; preds = %27
  invoke void @_ZSt25__throw_bad_function_callv() #28
          to label %.noexc19 unwind label %70

.noexc19:                                         ; preds = %30
  unreachable

31:                                               ; preds = %27
  %32 = load ptr, ptr %20, align 8, !tbaa !198, !noalias !671
  invoke void %32(ptr dead_on_unwind nonnull writable sret(%"class.Yosys::SExpr") align 8 %14, ptr noundef nonnull align 8 dereferenceable(32) %15, ptr noundef nonnull align 8 dereferenceable(16) %9)
          to label %33 unwind label %70

33:                                               ; preds = %31
  call void @llvm.lifetime.end.p0(i64 16, ptr nonnull %9)
  invoke void @_ZN5Yosys9SExprUtil4listIJRA6_KcNS_5SExprES5_S5_EEES5_DpOT_(ptr dead_on_unwind writable sret(%"class.Yosys::SExpr") align 8 %0, ptr noundef nonnull align 1 dereferenceable(6) @.str.117, ptr noundef nonnull align 8 dereferenceable(40) %12, ptr noundef nonnull align 8 dereferenceable(40) %13, ptr noundef nonnull align 8 dereferenceable(40) %14)
          to label %34 unwind label %72

34:                                               ; preds = %33
  %35 = getelementptr inbounds nuw i8, ptr %14, i64 32
  %36 = load i8, ptr %35, align 8, !tbaa !155
  %switch.i.i.i = icmp eq i8 %36, 0
  br i1 %switch.i.i.i, label %.noexc1.i.i, label %37

.noexc1.i.i:                                      ; preds = %34
  call void @_ZNSt6vectorIN5Yosys5SExprESaIS1_EED2Ev(ptr noundef nonnull align 8 dereferenceable(40) %14) #26
  br label %_ZN5Yosys5SExprD2Ev.exit

37:                                               ; preds = %34
  %38 = load ptr, ptr %14, align 8, !tbaa !15
  %39 = getelementptr inbounds nuw i8, ptr %14, i64 16
  %40 = icmp eq ptr %38, %39
  br i1 %40, label %_ZNKSt7__cxx1112basic_stringIcSt11char_traitsIcESaIcEE11_M_is_localEv.exit.thread.i.i.i.i.i.i.i.i.i.i, label %_ZNKSt7__cxx1112basic_stringIcSt11char_traitsIcESaIcEE11_M_is_localEv.exit.i.i.i.i.i.i.i.i.i.i

_ZNKSt7__cxx1112basic_stringIcSt11char_traitsIcESaIcEE11_M_is_localEv.exit.thread.i.i.i.i.i.i.i.i.i.i: ; preds = %37
  %41 = getelementptr inbounds nuw i8, ptr %14, i64 8
  %42 = load i64, ptr %41, align 8, !tbaa !20
  %43 = icmp ult i64 %42, 16
  call void @llvm.assume(i1 %43)
  br label %_ZN5Yosys5SExprD2Ev.exit

_ZNKSt7__cxx1112basic_stringIcSt11char_traitsIcESaIcEE11_M_is_localEv.exit.i.i.i.i.i.i.i.i.i.i: ; preds = %37
  %44 = load i64, ptr %39, align 8, !tbaa !21
  %45 = add i64 %44, 1
  call void @_ZdlPvm(ptr noundef %38, i64 noundef %45) #27
  br label %_ZN5Yosys5SExprD2Ev.exit

_ZN5Yosys5SExprD2Ev.exit:                         ; preds = %.noexc1.i.i, %_ZNKSt7__cxx1112basic_stringIcSt11char_traitsIcESaIcEE11_M_is_localEv.exit.thread.i.i.i.i.i.i.i.i.i.i, %_ZNKSt7__cxx1112basic_stringIcSt11char_traitsIcESaIcEE11_M_is_localEv.exit.i.i.i.i.i.i.i.i.i.i
  call void @llvm.lifetime.end.p0(i64 40, ptr nonnull %14) #26
  %46 = getelementptr inbounds nuw i8, ptr %13, i64 32
  %47 = load i8, ptr %46, align 8, !tbaa !155
  %switch.i.i.i22 = icmp eq i8 %47, 0
  br i1 %switch.i.i.i22, label %.noexc1.i.i25, label %48

.noexc1.i.i25:                                    ; preds = %_ZN5Yosys5SExprD2Ev.exit
  call void @_ZNSt6vectorIN5Yosys5SExprESaIS1_EED2Ev(ptr noundef nonnull align 8 dereferenceable(40) %13) #26
  br label %_ZN5Yosys5SExprD2Ev.exit26

48:                                               ; preds = %_ZN5Yosys5SExprD2Ev.exit
  %49 = load ptr, ptr %13, align 8, !tbaa !15
  %50 = getelementptr inbounds nuw i8, ptr %13, i64 16
  %51 = icmp eq ptr %49, %50
  br i1 %51, label %_ZNKSt7__cxx1112basic_stringIcSt11char_traitsIcESaIcEE11_M_is_localEv.exit.thread.i.i.i.i.i.i.i.i.i.i24, label %_ZNKSt7__cxx1112basic_stringIcSt11char_traitsIcESaIcEE11_M_is_localEv.exit.i.i.i.i.i.i.i.i.i.i23

_ZNKSt7__cxx1112basic_stringIcSt11char_traitsIcESaIcEE11_M_is_localEv.exit.thread.i.i.i.i.i.i.i.i.i.i24: ; preds = %48
  %52 = getelementptr inbounds nuw i8, ptr %13, i64 8
  %53 = load i64, ptr %52, align 8, !tbaa !20
  %54 = icmp ult i64 %53, 16
  call void @llvm.assume(i1 %54)
  br label %_ZN5Yosys5SExprD2Ev.exit26

_ZNKSt7__cxx1112basic_stringIcSt11char_traitsIcESaIcEE11_M_is_localEv.exit.i.i.i.i.i.i.i.i.i.i23: ; preds = %48
  %55 = load i64, ptr %50, align 8, !tbaa !21
  %56 = add i64 %55, 1
  call void @_ZdlPvm(ptr noundef %49, i64 noundef %56) #27
  br label %_ZN5Yosys5SExprD2Ev.exit26

_ZN5Yosys5SExprD2Ev.exit26:                       ; preds = %.noexc1.i.i25, %_ZNKSt7__cxx1112basic_stringIcSt11char_traitsIcESaIcEE11_M_is_localEv.exit.thread.i.i.i.i.i.i.i.i.i.i24, %_ZNKSt7__cxx1112basic_stringIcSt11char_traitsIcESaIcEE11_M_is_localEv.exit.i.i.i.i.i.i.i.i.i.i23
  call void @llvm.lifetime.end.p0(i64 40, ptr nonnull %13) #26
  %57 = getelementptr inbounds nuw i8, ptr %12, i64 32
  %58 = load i8, ptr %57, align 8, !tbaa !155
  %switch.i.i.i27 = icmp eq i8 %58, 0
  br i1 %switch.i.i.i27, label %.noexc1.i.i30, label %59

.noexc1.i.i30:                                    ; preds = %_ZN5Yosys5SExprD2Ev.exit26
  call void @_ZNSt6vectorIN5Yosys5SExprESaIS1_EED2Ev(ptr noundef nonnull align 8 dereferenceable(40) %12) #26
  br label %_ZN5Yosys5SExprD2Ev.exit31

59:                                               ; preds = %_ZN5Yosys5SExprD2Ev.exit26
  %60 = load ptr, ptr %12, align 8, !tbaa !15
  %61 = getelementptr inbounds nuw i8, ptr %12, i64 16
  %62 = icmp eq ptr %60, %61
  br i1 %62, label %_ZNKSt7__cxx1112basic_stringIcSt11char_traitsIcESaIcEE11_M_is_localEv.exit.thread.i.i.i.i.i.i.i.i.i.i29, label %_ZNKSt7__cxx1112basic_stringIcSt11char_traitsIcESaIcEE11_M_is_localEv.exit.i.i.i.i.i.i.i.i.i.i28

_ZNKSt7__cxx1112basic_stringIcSt11char_traitsIcESaIcEE11_M_is_localEv.exit.thread.i.i.i.i.i.i.i.i.i.i29: ; preds = %59
  %63 = getelementptr inbounds nuw i8, ptr %12, i64 8
  %64 = load i64, ptr %63, align 8, !tbaa !20
  %65 = icmp ult i64 %64, 16
  call void @llvm.assume(i1 %65)
  br label %_ZN5Yosys5SExprD2Ev.exit31

_ZNKSt7__cxx1112basic_stringIcSt11char_traitsIcESaIcEE11_M_is_localEv.exit.i.i.i.i.i.i.i.i.i.i28: ; preds = %59
  %66 = load i64, ptr %61, align 8, !tbaa !21
  %67 = add i64 %66, 1
  call void @_ZdlPvm(ptr noundef %60, i64 noundef %67) #27
  br label %_ZN5Yosys5SExprD2Ev.exit31

_ZN5Yosys5SExprD2Ev.exit31:                       ; preds = %.noexc1.i.i30, %_ZNKSt7__cxx1112basic_stringIcSt11char_traitsIcESaIcEE11_M_is_localEv.exit.thread.i.i.i.i.i.i.i.i.i.i29, %_ZNKSt7__cxx1112basic_stringIcSt11char_traitsIcESaIcEE11_M_is_localEv.exit.i.i.i.i.i.i.i.i.i.i28
  call void @llvm.lifetime.end.p0(i64 40, ptr nonnull %12) #26
  ret void

68:                                               ; preds = %25, %24
  %69 = landingpad { ptr, i32 }
          cleanup
  br label %75

70:                                               ; preds = %31, %30
  %71 = landingpad { ptr, i32 }
          cleanup
  br label %74

72:                                               ; preds = %33
  %73 = landingpad { ptr, i32 }
          cleanup
  call void @_ZN5Yosys5SExprD2Ev(ptr noundef nonnull align 8 dereferenceable(40) %14) #26
  br label %74

74:                                               ; preds = %72, %70
  %.pn = phi { ptr, i32 } [ %73, %72 ], [ %71, %70 ]
  call void @llvm.lifetime.end.p0(i64 40, ptr nonnull %14) #26
  call void @_ZN5Yosys5SExprD2Ev(ptr noundef nonnull align 8 dereferenceable(40) %13) #26
  br label %75

75:                                               ; preds = %74, %68
  %.pn.pn = phi { ptr, i32 } [ %.pn, %74 ], [ %69, %68 ]
  call void @llvm.lifetime.end.p0(i64 40, ptr nonnull %13) #26
  call void @_ZN5Yosys5SExprD2Ev(ptr noundef nonnull align 8 dereferenceable(40) %12) #26
  call void @llvm.lifetime.end.p0(i64 40, ptr nonnull %12) #26
  resume { ptr, i32 } %.pn.pn
}